target datalayout = "e-m:e-p270:32:32-p271:32:32-p272:64:64-i64:64-i128:128-f80:128-n8:16:32:64-S128"
target triple = "x86_64-pc-linux-gnu"

%struct.bignum_st = type { ptr, i32, i32, i32, i32 }

; Function Attrs: nounwind uwtable
define hidden i64 @BN_bn2bin(ptr noundef %0, ptr noundef %1) #0 {
  %3 = alloca ptr, align 8
  %4 = alloca ptr, align 8
  %5 = alloca i64, align 8
  %6 = alloca i64, align 8
  %7 = alloca i64, align 8
  store ptr %0, ptr %3, align 8, !tbaa !13
  store ptr %1, ptr %4, align 8, !tbaa !6
  call void @llvm.lifetime.start.p0(i64 8, ptr %5) #7
  call void @llvm.lifetime.start.p0(i64 8, ptr %6) #7
  call void @llvm.lifetime.start.p0(i64 8, ptr %7) #7
  %8 = load ptr, ptr %3, align 8, !tbaa !13
  %9 = call i32 @BN_num_bytes(ptr noundef %8)
  %10 = zext i32 %9 to i64
  store i64 %10, ptr %6, align 8, !tbaa !11
  store i64 %10, ptr %5, align 8, !tbaa !11
  br label %11

11:                                               ; preds = %15, %2
  %12 = load i64, ptr %6, align 8, !tbaa !11
  %13 = add i64 %12, -1
  store i64 %13, ptr %6, align 8, !tbaa !11
  %14 = icmp ne i64 %12, 0
  br i1 %14, label %15, label %34

15:                                               ; preds = %11
  %16 = load ptr, ptr %3, align 8, !tbaa !13
  %17 = getelementptr inbounds nuw %struct.bignum_st, ptr %16, i32 0, i32 0
  %18 = load ptr, ptr %17, align 8, !tbaa !22
  %19 = load i64, ptr %6, align 8, !tbaa !11
  %20 = udiv i64 %19, 8
  %21 = getelementptr inbounds nuw i64, ptr %18, i64 %20
  %22 = load i64, ptr %21, align 8, !tbaa !11
  store i64 %22, ptr %7, align 8, !tbaa !11
  %23 = load i64, ptr %7, align 8, !tbaa !11
  %24 = load i64, ptr %6, align 8, !tbaa !11
  %25 = urem i64 %24, 8
  %26 = mul i64 8, %25
  %27 = lshr i64 %23, %26
  %28 = trunc i64 %27 to i8
  %29 = zext i8 %28 to i32
  %30 = and i32 %29, 255
  %31 = trunc i32 %30 to i8
  %32 = load ptr, ptr %4, align 8, !tbaa !6
  %33 = getelementptr inbounds nuw i8, ptr %32, i32 1
  store ptr %33, ptr %4, align 8, !tbaa !6
  store i8 %31, ptr %32, align 1, !tbaa !21
  br label %11, !llvm.loop !25

34:                                               ; preds = %11
  %35 = load i64, ptr %5, align 8, !tbaa !11
  call void @llvm.lifetime.end.p0(i64 8, ptr %7) #7
  call void @llvm.lifetime.end.p0(i64 8, ptr %6) #7
  call void @llvm.lifetime.end.p0(i64 8, ptr %5) #7
  ret i64 %35
}