; Function Attrs: nounwind uwtable
define hidden range(i64 0, 4294967296) i64 @BN_bn2bin(ptr noundef %0, ptr noundef writeonly captures(none) %1) local_unnamed_addr #0 {
  %3 = tail call i32 @BN_num_bytes(ptr noundef %0) #9
  %4 = zext i32 %3 to i64
  %.not8 = icmp eq i32 %3, 0
  br i1 %.not8, label %._crit_edge, label %.lr.ph

.lr.ph:                                           ; preds = %2, %.lr.ph
  %.010 = phi ptr [ %14, %.lr.ph ], [ %1, %2 ]
  %.079 = phi i64 [ %5, %.lr.ph ], [ %4, %2 ]
  %5 = add nsw i64 %.079, -1
  %6 = load ptr, ptr %0, align 8, !tbaa !15
  %7 = lshr i64 %5, 3
  %8 = getelementptr inbounds nuw i64, ptr %6, i64 %7
  %9 = load i64, ptr %8, align 8, !tbaa !16
  %10 = shl i64 %5, 3
  %11 = and i64 %10, 56
  %12 = lshr i64 %9, %11
  %13 = trunc i64 %12 to i8
  %14 = getelementptr inbounds nuw i8, ptr %.010, i64 1
  store i8 %13, ptr %.010, align 1, !tbaa !14
  %.not = icmp eq i64 %5, 0
  br i1 %.not, label %._crit_edge, label %.lr.ph, !llvm.loop !20

._crit_edge:                                      ; preds = %.lr.ph, %2
  ret i64 %4
}